libKF5Wallet.so.5:_ZGTtNKSt13bad_exception4whatEv
libKF5Wallet.so.5:_ZGTtNKSt13bad_exceptionD1Ev
libKF5Wallet.so.5:_ZGTtNKSt9exception4whatEv
libKF5Wallet.so.5:_ZGTtNKSt9exceptionD1Ev
libKF5Wallet.so.5:_ZN10__cxxabiv111__terminateEPFvvE
libKF5Wallet.so.5:_ZN10__cxxabiv112__unexpectedEPFvvE
libKF5Wallet.so.5:_ZN10__cxxabiv115__forced_unwindD0Ev
libKF5Wallet.so.5:_ZN10__cxxabiv115__forced_unwindD1Ev
libKF5Wallet.so.5:_ZN10__cxxabiv115__forced_unwindD2Ev
libKF5Wallet.so.5:_ZN10__cxxabiv117__class_type_infoD0Ev
libKF5Wallet.so.5:_ZN10__cxxabiv117__class_type_infoD1Ev
libKF5Wallet.so.5:_ZN10__cxxabiv117__class_type_infoD2Ev
libKF5Wallet.so.5:_ZN10__cxxabiv119__foreign_exceptionD0Ev
libKF5Wallet.so.5:_ZN10__cxxabiv119__foreign_exceptionD1Ev
libKF5Wallet.so.5:_ZN10__cxxabiv119__foreign_exceptionD2Ev
libKF5Wallet.so.5:_ZN10__cxxabiv120__si_class_type_infoD0Ev
libKF5Wallet.so.5:_ZN10__cxxabiv120__si_class_type_infoD1Ev
libKF5Wallet.so.5:_ZN10__cxxabiv120__si_class_type_infoD2Ev
libKF5Wallet.so.5:_ZN7KWallet6Wallet10folderListEv
libKF5Wallet.so.5:_ZN7KWallet6Wallet10lockWalletEv
libKF5Wallet.so.5:_ZN7KWallet6Wallet10openWalletERK7QStringyNS0_8OpenTypeE
libKF5Wallet.so.5:_ZN7KWallet6Wallet10walletListEv
libKF5Wallet.so.5:_ZN7KWallet6Wallet10writeEntryERK7QStringRK10QByteArray
libKF5Wallet.so.5:_ZN7KWallet6Wallet10writeEntryERK7QStringRK10QByteArrayNS0_9EntryTypeE
libKF5Wallet.so.5:_ZN7KWallet6Wallet11LocalWalletEv
libKF5Wallet.so.5:_ZN7KWallet6Wallet11closeWalletERK7QStringb
libKF5Wallet.so.5:_ZN7KWallet6Wallet11qt_metacallEN11QMetaObject4CallEiPPv
libKF5Wallet.so.5:_ZN7KWallet6Wallet11qt_metacastEPKc
libKF5Wallet.so.5:_ZN7KWallet6Wallet11readMapListERK7QStringR4QMapIS1_S4_IS1_S1_EE
libKF5Wallet.so.5:_ZN7KWallet6Wallet11removeEntryERK7QString
libKF5Wallet.so.5:_ZN7KWallet6Wallet11renameEntryERK7QStringS3_
libKF5Wallet.so.5:_ZN7KWallet6Wallet12createFolderERK7QString
libKF5Wallet.so.5:_ZN7KWallet6Wallet12deleteWalletERK7QString
libKF5Wallet.so.5:_ZN7KWallet6Wallet12readPasswordERK7QStringRS1_
libKF5Wallet.so.5:_ZN7KWallet6Wallet12removeFolderERK7QString
libKF5Wallet.so.5:_ZN7KWallet6Wallet12virtual_hookEiPv
libKF5Wallet.so.5:_ZN7KWallet6Wallet12walletClosedEv
libKF5Wallet.so.5:_ZN7KWallet6Wallet12walletOpenedEb
libKF5Wallet.so.5:_ZN7KWallet6Wallet13NetworkWalletEv
libKF5Wallet.so.5:_ZN7KWallet6Wallet13folderRemovedERK7QString
libKF5Wallet.so.5:_ZN7KWallet6Wallet13folderUpdatedERK7QString
libKF5Wallet.so.5:_ZN7KWallet6Wallet13readEntryListERK7QStringR4QMapIS1_10QByteArrayE
libKF5Wallet.so.5:_ZN7KWallet6Wallet13writePasswordERK7QStringS3_
libKF5Wallet.so.5:_ZN7KWallet6Wallet14FormDataFolderEv
libKF5Wallet.so.5:_ZN7KWallet6Wallet14PasswordFolderEv
libKF5Wallet.so.5:_ZN7KWallet6Wallet14changePasswordERK7QStringy
libKF5Wallet.so.5:_ZN7KWallet6Wallet15keyDoesNotExistERK7QStringS3_S3_
libKF5Wallet.so.5:_ZN7KWallet6Wallet16emitWalletOpenedEv
libKF5Wallet.so.5:_ZN7KWallet6Wallet16readPasswordListERK7QStringR4QMapIS1_S1_E
libKF5Wallet.so.5:_ZN7KWallet6Wallet16slotWalletClosedEi
libKF5Wallet.so.5:_ZN7KWallet6Wallet17folderListUpdatedEv
libKF5Wallet.so.5:_ZN7KWallet6Wallet17slotFolderUpdatedERK7QStringS3_
libKF5Wallet.so.5:_ZN7KWallet6Wallet17walletAsyncOpenedEii
libKF5Wallet.so.5:_ZN7KWallet6Wallet18folderDoesNotExistERK7QStringS3_
libKF5Wallet.so.5:_ZN7KWallet6Wallet21disconnectApplicationERK7QStringS3_
libKF5Wallet.so.5:_ZN7KWallet6Wallet21requestChangePasswordEy
libKF5Wallet.so.5:_ZN7KWallet6Wallet21slotCollectionDeletedEv
libKF5Wallet.so.5:_ZN7KWallet6Wallet21slotFolderListUpdatedERK7QString
libKF5Wallet.so.5:_ZN7KWallet6Wallet22isUsingKSecretsServiceEv
libKF5Wallet.so.5:_ZN7KWallet6Wallet24emitWalletAsyncOpenErrorEv
libKF5Wallet.so.5:_ZN7KWallet6Wallet27slotApplicationDisconnectedERK7QStringS3_
libKF5Wallet.so.5:_ZN7KWallet6Wallet27slotCollectionStatusChangedEi
libKF5Wallet.so.5:_ZN7KWallet6Wallet4syncEv
libKF5Wallet.so.5:_ZN7KWallet6Wallet5usersERK7QString
libKF5Wallet.so.5:_ZN7KWallet6Wallet6isOpenERK7QString
libKF5Wallet.so.5:_ZN7KWallet6Wallet7readMapERK7QStringR4QMapIS1_S1_E
libKF5Wallet.so.5:_ZN7KWallet6Wallet8hasEntryERK7QString
libKF5Wallet.so.5:_ZN7KWallet6Wallet8writeMapERK7QStringRK4QMapIS1_S1_E
libKF5Wallet.so.5:_ZN7KWallet6Wallet9entryListEv
libKF5Wallet.so.5:_ZN7KWallet6Wallet9entryTypeERK7QString
libKF5Wallet.so.5:_ZN7KWallet6Wallet9hasFolderERK7QString
libKF5Wallet.so.5:_ZN7KWallet6Wallet9isEnabledEv
libKF5Wallet.so.5:_ZN7KWallet6Wallet9readEntryERK7QStringR10QByteArray
libKF5Wallet.so.5:_ZN7KWallet6Wallet9setFolderERK7QString
libKF5Wallet.so.5:_ZN7KWallet6WalletC1EiRK7QString
libKF5Wallet.so.5:_ZN7KWallet6WalletC2EiRK7QString
libKF5Wallet.so.5:_ZN7KWallet6WalletD0Ev
libKF5Wallet.so.5:_ZN7KWallet6WalletD1Ev
libKF5Wallet.so.5:_ZN7KWallet6WalletD2Ev
libKF5Wallet.so.5:_ZN9__gnu_cxx20recursive_init_errorC1Ev
libKF5Wallet.so.5:_ZN9__gnu_cxx20recursive_init_errorC2Ev
libKF5Wallet.so.5:_ZN9__gnu_cxx20recursive_init_errorD0Ev
libKF5Wallet.so.5:_ZN9__gnu_cxx20recursive_init_errorD1Ev
libKF5Wallet.so.5:_ZN9__gnu_cxx20recursive_init_errorD2Ev
libKF5Wallet.so.5:_ZN9__gnu_cxx27__verbose_terminate_handlerEv
libKF5Wallet.so.5:_ZN9__gnu_cxx9__freeresEv
libKF5Wallet.so.5:_ZNK10__cxxabiv117__class_type_info10__do_catchEPKSt9type_infoPPvj
libKF5Wallet.so.5:_ZNK10__cxxabiv117__class_type_info11__do_upcastEPKS0_PKvRNS0_15__upcast_resultE
libKF5Wallet.so.5:_ZNK10__cxxabiv117__class_type_info11__do_upcastEPKS0_PPv
libKF5Wallet.so.5:_ZNK10__cxxabiv117__class_type_info12__do_dyncastElNS0_10__sub_kindEPKS0_PKvS3_S5_RNS0_16__dyncast_resultE
libKF5Wallet.so.5:_ZNK10__cxxabiv117__class_type_info20__do_find_public_srcElPKvPKS0_S2_
libKF5Wallet.so.5:_ZNK10__cxxabiv120__si_class_type_info11__do_upcastEPKNS_17__class_type_infoEPKvRNS1_15__upcast_resultE
libKF5Wallet.so.5:_ZNK10__cxxabiv120__si_class_type_info12__do_dyncastElNS_17__class_type_info10__sub_kindEPKS1_PKvS4_S6_RNS1_16__dyncast_resultE
libKF5Wallet.so.5:_ZNK10__cxxabiv120__si_class_type_info20__do_find_public_srcElPKvPKNS_17__class_type_infoES2_
libKF5Wallet.so.5:_ZNK7KWallet6Wallet10metaObjectEv
libKF5Wallet.so.5:_ZNK7KWallet6Wallet10walletNameEv
libKF5Wallet.so.5:_ZNK7KWallet6Wallet11entriesListEPb
libKF5Wallet.so.5:_ZNK7KWallet6Wallet12passwordListEPb
libKF5Wallet.so.5:_ZNK7KWallet6Wallet13currentFolderEv
libKF5Wallet.so.5:_ZNK7KWallet6Wallet6isOpenEv
libKF5Wallet.so.5:_ZNK7KWallet6Wallet7mapListEPb
libKF5Wallet.so.5:_ZNKSt13bad_exception4whatEv
libKF5Wallet.so.5:_ZNKSt9bad_alloc4whatEv
libKF5Wallet.so.5:_ZNKSt9exception4whatEv
libKF5Wallet.so.5:_ZNKSt9type_info10__do_catchEPKS_PPvj
libKF5Wallet.so.5:_ZNKSt9type_info11__do_upcastEPKN10__cxxabiv117__class_type_infoEPPv
libKF5Wallet.so.5:_ZNKSt9type_info14__is_pointer_pEv
libKF5Wallet.so.5:_ZNKSt9type_info15__is_function_pEv
libKF5Wallet.so.5:_ZNSt13bad_exceptionD0Ev
libKF5Wallet.so.5:_ZNSt13bad_exceptionD1Ev
libKF5Wallet.so.5:_ZNSt13bad_exceptionD2Ev
libKF5Wallet.so.5:_ZNSt9bad_allocD0Ev
libKF5Wallet.so.5:_ZNSt9bad_allocD1Ev
libKF5Wallet.so.5:_ZNSt9bad_allocD2Ev
libKF5Wallet.so.5:_ZNSt9exceptionD0Ev
libKF5Wallet.so.5:_ZNSt9exceptionD1Ev
libKF5Wallet.so.5:_ZNSt9exceptionD2Ev
libKF5Wallet.so.5:_ZNSt9type_infoD0Ev
libKF5Wallet.so.5:_ZNSt9type_infoD1Ev
libKF5Wallet.so.5:_ZNSt9type_infoD2Ev
libKF5Wallet.so.5:_ZSt10unexpectedv
libKF5Wallet.so.5:_ZSt13get_terminatev
libKF5Wallet.so.5:_ZSt13set_terminatePFvvE
libKF5Wallet.so.5:_ZSt14get_unexpectedv
libKF5Wallet.so.5:_ZSt14set_unexpectedPFvvE
libKF5Wallet.so.5:_ZSt15get_new_handlerv
libKF5Wallet.so.5:_ZSt15set_new_handlerPFvvE
libKF5Wallet.so.5:_ZSt18uncaught_exceptionv
libKF5Wallet.so.5:_ZSt19uncaught_exceptionsv
libKF5Wallet.so.5:_ZSt9terminatev
libKF5Wallet.so.5:_ZdlPv
libKF5Wallet.so.5:_ZdlPvm
libKF5Wallet.so.5:_Znwm
libKF5Wallet.so.5:__cxa_allocate_dependent_exception
libKF5Wallet.so.5:__cxa_allocate_exception
libKF5Wallet.so.5:__cxa_begin_catch
libKF5Wallet.so.5:__cxa_call_terminate
libKF5Wallet.so.5:__cxa_call_unexpected
libKF5Wallet.so.5:__cxa_current_exception_type
libKF5Wallet.so.5:__cxa_demangle
libKF5Wallet.so.5:__cxa_end_catch
libKF5Wallet.so.5:__cxa_free_dependent_exception
libKF5Wallet.so.5:__cxa_free_exception
libKF5Wallet.so.5:__cxa_get_exception_ptr
libKF5Wallet.so.5:__cxa_get_globals
libKF5Wallet.so.5:__cxa_get_globals_fast
libKF5Wallet.so.5:__cxa_guard_abort
libKF5Wallet.so.5:__cxa_guard_acquire
libKF5Wallet.so.5:__cxa_guard_release
libKF5Wallet.so.5:__cxa_init_primary_exception
libKF5Wallet.so.5:__cxa_rethrow
libKF5Wallet.so.5:__cxa_throw
libKF5Wallet.so.5:__gcclibcxx_demangle_callback
libKF5Wallet.so.5:__gxx_personality_v0
libkwalletbackend5.so.5:_Z20_txnal_cow_string_D1Pv
libkwalletbackend5.so.5:_Z23_txnal_cow_string_c_strPKv
libkwalletbackend5.so.5:_Z23_txnal_sso_string_c_strPKv
libkwalletbackend5.so.5:_Z26_txnal_logic_error_get_msgPv
libkwalletbackend5.so.5:_Z27_txnal_cow_string_D1_commitPv
libkwalletbackend5.so.5:_Z28_txnal_runtime_error_get_msgPv
libkwalletbackend5.so.5:_Z35_txnal_cow_string_C1_for_exceptionsPvPKcS_
libkwalletbackend5.so.5:_ZGTtNKSt11logic_error4whatEv
libkwalletbackend5.so.5:_ZGTtNKSt13bad_exception4whatEv
libkwalletbackend5.so.5:_ZGTtNKSt13bad_exceptionD1Ev
libkwalletbackend5.so.5:_ZGTtNKSt13runtime_error4whatEv
libkwalletbackend5.so.5:_ZGTtNKSt9exception4whatEv
libkwalletbackend5.so.5:_ZGTtNKSt9exceptionD1Ev
libkwalletbackend5.so.5:_ZGTtNSt11logic_errorC1EPKc
libkwalletbackend5.so.5:_ZGTtNSt11logic_errorC1ERKNSt7__cxx1112basic_stringIcSt11char_traitsIcESaIcEEE
libkwalletbackend5.so.5:_ZGTtNSt11logic_errorC2EPKc
libkwalletbackend5.so.5:_ZGTtNSt11logic_errorC2ERKNSt7__cxx1112basic_stringIcSt11char_traitsIcESaIcEEE
libkwalletbackend5.so.5:_ZGTtNSt11logic_errorD0Ev
libkwalletbackend5.so.5:_ZGTtNSt11logic_errorD1Ev
libkwalletbackend5.so.5:_ZGTtNSt11logic_errorD2Ev
libkwalletbackend5.so.5:_ZGTtNSt11range_errorC1EPKc
libkwalletbackend5.so.5:_ZGTtNSt11range_errorC1ERKNSt7__cxx1112basic_stringIcSt11char_traitsIcESaIcEEE
libkwalletbackend5.so.5:_ZGTtNSt11range_errorC2EPKc
libkwalletbackend5.so.5:_ZGTtNSt11range_errorC2ERKNSt7__cxx1112basic_stringIcSt11char_traitsIcESaIcEEE
libkwalletbackend5.so.5:_ZGTtNSt11range_errorD0Ev
libkwalletbackend5.so.5:_ZGTtNSt11range_errorD1Ev
libkwalletbackend5.so.5:_ZGTtNSt11range_errorD2Ev
libkwalletbackend5.so.5:_ZGTtNSt12domain_errorC1EPKc
libkwalletbackend5.so.5:_ZGTtNSt12domain_errorC1ERKNSt7__cxx1112basic_stringIcSt11char_traitsIcESaIcEEE
libkwalletbackend5.so.5:_ZGTtNSt12domain_errorC2EPKc
libkwalletbackend5.so.5:_ZGTtNSt12domain_errorC2ERKNSt7__cxx1112basic_stringIcSt11char_traitsIcESaIcEEE
libkwalletbackend5.so.5:_ZGTtNSt12domain_errorD0Ev
libkwalletbackend5.so.5:_ZGTtNSt12domain_errorD1Ev
libkwalletbackend5.so.5:_ZGTtNSt12domain_errorD2Ev
libkwalletbackend5.so.5:_ZGTtNSt12length_errorC1EPKc
libkwalletbackend5.so.5:_ZGTtNSt12length_errorC1ERKNSt7__cxx1112basic_stringIcSt11char_traitsIcESaIcEEE
libkwalletbackend5.so.5:_ZGTtNSt12length_errorC2EPKc
libkwalletbackend5.so.5:_ZGTtNSt12length_errorC2ERKNSt7__cxx1112basic_stringIcSt11char_traitsIcESaIcEEE
libkwalletbackend5.so.5:_ZGTtNSt12length_errorD0Ev
libkwalletbackend5.so.5:_ZGTtNSt12length_errorD1Ev
libkwalletbackend5.so.5:_ZGTtNSt12length_errorD2Ev
libkwalletbackend5.so.5:_ZGTtNSt12out_of_rangeC1EPKc
libkwalletbackend5.so.5:_ZGTtNSt12out_of_rangeC1ERKNSt7__cxx1112basic_stringIcSt11char_traitsIcESaIcEEE
libkwalletbackend5.so.5:_ZGTtNSt12out_of_rangeC2EPKc
libkwalletbackend5.so.5:_ZGTtNSt12out_of_rangeC2ERKNSt7__cxx1112basic_stringIcSt11char_traitsIcESaIcEEE
libkwalletbackend5.so.5:_ZGTtNSt12out_of_rangeD0Ev
libkwalletbackend5.so.5:_ZGTtNSt12out_of_rangeD1Ev
libkwalletbackend5.so.5:_ZGTtNSt12out_of_rangeD2Ev
libkwalletbackend5.so.5:_ZGTtNSt13runtime_errorC1EPKc
libkwalletbackend5.so.5:_ZGTtNSt13runtime_errorC1ERKNSt7__cxx1112basic_stringIcSt11char_traitsIcESaIcEEE
libkwalletbackend5.so.5:_ZGTtNSt13runtime_errorC2EPKc
libkwalletbackend5.so.5:_ZGTtNSt13runtime_errorC2ERKNSt7__cxx1112basic_stringIcSt11char_traitsIcESaIcEEE
libkwalletbackend5.so.5:_ZGTtNSt13runtime_errorD0Ev
libkwalletbackend5.so.5:_ZGTtNSt13runtime_errorD1Ev
libkwalletbackend5.so.5:_ZGTtNSt13runtime_errorD2Ev
libkwalletbackend5.so.5:_ZGTtNSt14overflow_errorC1EPKc
libkwalletbackend5.so.5:_ZGTtNSt14overflow_errorC1ERKNSt7__cxx1112basic_stringIcSt11char_traitsIcESaIcEEE
libkwalletbackend5.so.5:_ZGTtNSt14overflow_errorC2EPKc
libkwalletbackend5.so.5:_ZGTtNSt14overflow_errorC2ERKNSt7__cxx1112basic_stringIcSt11char_traitsIcESaIcEEE
libkwalletbackend5.so.5:_ZGTtNSt14overflow_errorD0Ev
libkwalletbackend5.so.5:_ZGTtNSt14overflow_errorD1Ev
libkwalletbackend5.so.5:_ZGTtNSt14overflow_errorD2Ev
libkwalletbackend5.so.5:_ZGTtNSt15underflow_errorC1EPKc
libkwalletbackend5.so.5:_ZGTtNSt15underflow_errorC1ERKNSt7__cxx1112basic_stringIcSt11char_traitsIcESaIcEEE
libkwalletbackend5.so.5:_ZGTtNSt15underflow_errorC2EPKc
libkwalletbackend5.so.5:_ZGTtNSt15underflow_errorC2ERKNSt7__cxx1112basic_stringIcSt11char_traitsIcESaIcEEE
libkwalletbackend5.so.5:_ZGTtNSt15underflow_errorD0Ev
libkwalletbackend5.so.5:_ZGTtNSt15underflow_errorD1Ev
libkwalletbackend5.so.5:_ZGTtNSt15underflow_errorD2Ev
libkwalletbackend5.so.5:_ZGTtNSt16invalid_argumentC1EPKc
libkwalletbackend5.so.5:_ZGTtNSt16invalid_argumentC1ERKNSt7__cxx1112basic_stringIcSt11char_traitsIcESaIcEEE
libkwalletbackend5.so.5:_ZGTtNSt16invalid_argumentC2EPKc
libkwalletbackend5.so.5:_ZGTtNSt16invalid_argumentC2ERKNSt7__cxx1112basic_stringIcSt11char_traitsIcESaIcEEE
libkwalletbackend5.so.5:_ZGTtNSt16invalid_argumentD0Ev
libkwalletbackend5.so.5:_ZGTtNSt16invalid_argumentD1Ev
libkwalletbackend5.so.5:_ZGTtNSt16invalid_argumentD2Ev
libkwalletbackend5.so.5:_ZN10__cxxabiv111__terminateEPFvvE
libkwalletbackend5.so.5:_ZN10__cxxabiv112__unexpectedEPFvvE
libkwalletbackend5.so.5:_ZN10__cxxabiv115__forced_unwindD0Ev
libkwalletbackend5.so.5:_ZN10__cxxabiv115__forced_unwindD1Ev
libkwalletbackend5.so.5:_ZN10__cxxabiv115__forced_unwindD2Ev
libkwalletbackend5.so.5:_ZN10__cxxabiv117__class_type_infoD0Ev
libkwalletbackend5.so.5:_ZN10__cxxabiv117__class_type_infoD1Ev
libkwalletbackend5.so.5:_ZN10__cxxabiv117__class_type_infoD2Ev
libkwalletbackend5.so.5:_ZN10__cxxabiv119__foreign_exceptionD0Ev
libkwalletbackend5.so.5:_ZN10__cxxabiv119__foreign_exceptionD1Ev
libkwalletbackend5.so.5:_ZN10__cxxabiv119__foreign_exceptionD2Ev
libkwalletbackend5.so.5:_ZN10__cxxabiv120__si_class_type_infoD0Ev
libkwalletbackend5.so.5:_ZN10__cxxabiv120__si_class_type_infoD1Ev
libkwalletbackend5.so.5:_ZN10__cxxabiv120__si_class_type_infoD2Ev
libkwalletbackend5.so.5:_ZN10__cxxabiv121__vmi_class_type_infoD0Ev
libkwalletbackend5.so.5:_ZN10__cxxabiv121__vmi_class_type_infoD1Ev
libkwalletbackend5.so.5:_ZN10__cxxabiv121__vmi_class_type_infoD2Ev
libkwalletbackend5.so.5:_ZN11BlockCipherC1Ev
libkwalletbackend5.so.5:_ZN11BlockCipherC2Ev
libkwalletbackend5.so.5:_ZN11BlockCipherD0Ev
libkwalletbackend5.so.5:_ZN11BlockCipherD1Ev
libkwalletbackend5.so.5:_ZN11BlockCipherD2Ev
libkwalletbackend5.so.5:_ZN4SHA14hashEv
libkwalletbackend5.so.5:_ZN4SHA15resetEv
libkwalletbackend5.so.5:_ZN4SHA17processEPKvi
libkwalletbackend5.so.5:_ZN4SHA19transformEPv
libkwalletbackend5.so.5:_ZN4SHA1C1Ev
libkwalletbackend5.so.5:_ZN4SHA1C2Ev
libkwalletbackend5.so.5:_ZN4SHA1D1Ev
libkwalletbackend5.so.5:_ZN4SHA1D2Ev
libkwalletbackend5.so.5:_ZN7KWallet5Entry4copyEPKS0_
libkwalletbackend5.so.5:_ZN7KWallet5Entry6setKeyERK7QString
libkwalletbackend5.so.5:_ZN7KWallet5Entry7setTypeENS_6Wallet9EntryTypeE
libkwalletbackend5.so.5:_ZN7KWallet5Entry8setValueERK10QByteArray
libkwalletbackend5.so.5:_ZN7KWallet5Entry8setValueERK7QString
libkwalletbackend5.so.5:_ZN7KWallet5EntryC1Ev
libkwalletbackend5.so.5:_ZN7KWallet5EntryC2Ev
libkwalletbackend5.so.5:_ZN7KWallet5EntryD1Ev
libkwalletbackend5.so.5:_ZN7KWallet5EntryD2Ev
libkwalletbackend5.so.5:_ZN7KWallet7Backend10writeEntryEPNS_5EntryE
libkwalletbackend5.so.5:_ZN7KWallet7Backend11removeEntryERK7QString
libkwalletbackend5.so.5:_ZN7KWallet7Backend11renameEntryERK7QStringS3_
libkwalletbackend5.so.5:_ZN7KWallet7Backend11setPasswordERK10QByteArray
libkwalletbackend5.so.5:_ZN7KWallet7Backend12createFolderERK7QString
libkwalletbackend5.so.5:_ZN7KWallet7Backend12openInternalEy
libkwalletbackend5.so.5:_ZN7KWallet7Backend12removeFolderERK7QString
libkwalletbackend5.so.5:_ZN7KWallet7Backend12renameWalletERK7QStringb
libkwalletbackend5.so.5:_ZN7KWallet7Backend13closeInternalEb
libkwalletbackend5.so.5:_ZN7KWallet7Backend13openPreHashedERK10QByteArray
libkwalletbackend5.so.5:_ZN7KWallet7Backend13readEntryListERK7QString
libkwalletbackend5.so.5:_ZN7KWallet7Backend13setCipherTypeENS_17BackendCipherTypeE
libkwalletbackend5.so.5:_ZN7KWallet7Backend13swapToNewHashEv
libkwalletbackend5.so.5:_ZN7KWallet7Backend14openRCToStringEi
libkwalletbackend5.so.5:_ZN7KWallet7Backend15getSaveLocationEv
libkwalletbackend5.so.5:_ZN7KWallet7Backend16decodeWalletNameERK7QString
libkwalletbackend5.so.5:_ZN7KWallet7Backend16encodeWalletNameERK7QString
libkwalletbackend5.so.5:_ZN7KWallet7Backend4openERK10QByteArrayy
libkwalletbackend5.so.5:_ZN7KWallet7Backend4openERKN5GpgME3KeyE
libkwalletbackend5.so.5:_ZN7KWallet7Backend4syncEy
libkwalletbackend5.so.5:_ZN7KWallet7Backend5closeEb
libkwalletbackend5.so.5:_ZN7KWallet7Backend5derefEv
libkwalletbackend5.so.5:_ZN7KWallet7Backend6existsERK7QString
libkwalletbackend5.so.5:_ZN7KWallet7Backend9readEntryERK7QString
libkwalletbackend5.so.5:_ZN7KWallet7BackendC1ERK7QStringb
libkwalletbackend5.so.5:_ZN7KWallet7BackendC2ERK7QStringb
libkwalletbackend5.so.5:_ZN7KWallet7BackendD1Ev
libkwalletbackend5.so.5:_ZN7KWallet7BackendD2Ev
libkwalletbackend5.so.5:_ZN8BlowFish1FEj
libkwalletbackend5.so.5:_ZN8BlowFish4initEv
libkwalletbackend5.so.5:_ZN8BlowFish6setKeyEPvi
libkwalletbackend5.so.5:_ZN8BlowFish7decryptEPvi
libkwalletbackend5.so.5:_ZN8BlowFish7encryptEPvi
libkwalletbackend5.so.5:_ZN8BlowFish8decipherEPjS0_
libkwalletbackend5.so.5:_ZN8BlowFish8encipherEPjS0_
libkwalletbackend5.so.5:_ZN8BlowFishC1Ev
libkwalletbackend5.so.5:_ZN8BlowFishC2Ev
libkwalletbackend5.so.5:_ZN8BlowFishD0Ev
libkwalletbackend5.so.5:_ZN8BlowFishD1Ev
libkwalletbackend5.so.5:_ZN8BlowFishD2Ev
libkwalletbackend5.so.5:_ZN9__gnu_cxx15__concat_size_tEPcmm
libkwalletbackend5.so.5:_ZN9__gnu_cxx15__snprintf_liteEPcmPKcP13__va_list_tag
libkwalletbackend5.so.5:_ZN9__gnu_cxx20recursive_init_errorC1Ev
libkwalletbackend5.so.5:_ZN9__gnu_cxx20recursive_init_errorC2Ev
libkwalletbackend5.so.5:_ZN9__gnu_cxx20recursive_init_errorD0Ev
libkwalletbackend5.so.5:_ZN9__gnu_cxx20recursive_init_errorD1Ev
libkwalletbackend5.so.5:_ZN9__gnu_cxx20recursive_init_errorD2Ev
libkwalletbackend5.so.5:_ZN9__gnu_cxx26__throw_insufficient_spaceEPKcS1_
libkwalletbackend5.so.5:_ZN9__gnu_cxx27__verbose_terminate_handlerEv
libkwalletbackend5.so.5:_ZN9__gnu_cxx9__freeresEv
libkwalletbackend5.so.5:_ZNK10__cxxabiv117__class_type_info10__do_catchEPKSt9type_infoPPvj
libkwalletbackend5.so.5:_ZNK10__cxxabiv117__class_type_info11__do_upcastEPKS0_PKvRNS0_15__upcast_resultE
libkwalletbackend5.so.5:_ZNK10__cxxabiv117__class_type_info11__do_upcastEPKS0_PPv
libkwalletbackend5.so.5:_ZNK10__cxxabiv117__class_type_info12__do_dyncastElNS0_10__sub_kindEPKS0_PKvS3_S5_RNS0_16__dyncast_resultE
libkwalletbackend5.so.5:_ZNK10__cxxabiv117__class_type_info20__do_find_public_srcElPKvPKS0_S2_
libkwalletbackend5.so.5:_ZNK10__cxxabiv120__si_class_type_info11__do_upcastEPKNS_17__class_type_infoEPKvRNS1_15__upcast_resultE
libkwalletbackend5.so.5:_ZNK10__cxxabiv120__si_class_type_info12__do_dyncastElNS_17__class_type_info10__sub_kindEPKS1_PKvS4_S6_RNS1_16__dyncast_resultE
libkwalletbackend5.so.5:_ZNK10__cxxabiv120__si_class_type_info20__do_find_public_srcElPKvPKNS_17__class_type_infoES2_
libkwalletbackend5.so.5:_ZNK10__cxxabiv121__vmi_class_type_info11__do_upcastEPKNS_17__class_type_infoEPKvRNS1_15__upcast_resultE
libkwalletbackend5.so.5:_ZNK10__cxxabiv121__vmi_class_type_info12__do_dyncastElNS_17__class_type_info10__sub_kindEPKS1_PKvS4_S6_RNS1_16__dyncast_resultE
libkwalletbackend5.so.5:_ZNK10__cxxabiv121__vmi_class_type_info20__do_find_public_srcElPKvPKNS_17__class_type_infoES2_
libkwalletbackend5.so.5:_ZNK11BlockCipher9blockSizeEv
libkwalletbackend5.so.5:_ZNK4SHA14sizeEv
libkwalletbackend5.so.5:_ZNK4SHA19readyToGoEv
libkwalletbackend5.so.5:_ZNK7KWallet5Entry3keyEv
libkwalletbackend5.so.5:_ZNK7KWallet5Entry4typeEv
libkwalletbackend5.so.5:_ZNK7KWallet5Entry5valueEv
libkwalletbackend5.so.5:_ZNK7KWallet5Entry8passwordEv
libkwalletbackend5.so.5:_ZNK7KWallet7Backend10folderListEv
libkwalletbackend5.so.5:_ZNK7KWallet7Backend10walletNameEv
libkwalletbackend5.so.5:_ZNK7KWallet7Backend11entriesListEv
libkwalletbackend5.so.5:_ZNK7KWallet7Backend17createAndSaveSaltERK7QString
libkwalletbackend5.so.5:_ZNK7KWallet7Backend17entryDoesNotExistERK7QStringS3_
libkwalletbackend5.so.5:_ZNK7KWallet7Backend18folderDoesNotExistERK7QString
libkwalletbackend5.so.5:_ZNK7KWallet7Backend6gpgKeyEv
libkwalletbackend5.so.5:_ZNK7KWallet7Backend6isOpenEv
libkwalletbackend5.so.5:_ZNK7KWallet7Backend8hasEntryERK7QString
libkwalletbackend5.so.5:_ZNK7KWallet7Backend9entryListEv
libkwalletbackend5.so.5:_ZNK8BlowFish14variableKeyLenEv
libkwalletbackend5.so.5:_ZNK8BlowFish6keyLenEv
libkwalletbackend5.so.5:_ZNK8BlowFish9readyToGoEv
libkwalletbackend5.so.5:_ZNKSt10bad_typeid4whatEv
libkwalletbackend5.so.5:_ZNKSt11logic_error4whatEv
libkwalletbackend5.so.5:_ZNKSt13bad_exception4whatEv
libkwalletbackend5.so.5:_ZNKSt13random_device13_M_getentropyEv
libkwalletbackend5.so.5:_ZNKSt13runtime_error4whatEv
libkwalletbackend5.so.5:_ZNKSt20bad_array_new_length4whatEv
libkwalletbackend5.so.5:_ZNKSt3_V214error_category10_M_messageEi
libkwalletbackend5.so.5:_ZNKSt8bad_cast4whatEv
libkwalletbackend5.so.5:_ZNKSt9bad_alloc4whatEv
libkwalletbackend5.so.5:_ZNKSt9exception4whatEv
libkwalletbackend5.so.5:_ZNKSt9type_info10__do_catchEPKS_PPvj
libkwalletbackend5.so.5:_ZNKSt9type_info11__do_upcastEPKN10__cxxabiv117__class_type_infoEPPv
libkwalletbackend5.so.5:_ZNKSt9type_info14__is_pointer_pEv
libkwalletbackend5.so.5:_ZNKSt9type_info15__is_function_pEv
libkwalletbackend5.so.5:_ZNSt10bad_typeidD0Ev
libkwalletbackend5.so.5:_ZNSt10bad_typeidD1Ev
libkwalletbackend5.so.5:_ZNSt10bad_typeidD2Ev
libkwalletbackend5.so.5:_ZNSt11logic_errorC1EOS_
libkwalletbackend5.so.5:_ZNSt11logic_errorC1EPKc
libkwalletbackend5.so.5:_ZNSt11logic_errorC1ERKS_
libkwalletbackend5.so.5:_ZNSt11logic_errorC1ERKSs
libkwalletbackend5.so.5:_ZNSt11logic_errorC2EOS_
libkwalletbackend5.so.5:_ZNSt11logic_errorC2EPKc
libkwalletbackend5.so.5:_ZNSt11logic_errorC2ERKS_
libkwalletbackend5.so.5:_ZNSt11logic_errorC2ERKSs
libkwalletbackend5.so.5:_ZNSt11logic_errorD0Ev
libkwalletbackend5.so.5:_ZNSt11logic_errorD1Ev
libkwalletbackend5.so.5:_ZNSt11logic_errorD2Ev
libkwalletbackend5.so.5:_ZNSt11logic_erroraSEOS_
libkwalletbackend5.so.5:_ZNSt11logic_erroraSERKS_
libkwalletbackend5.so.5:_ZNSt11range_errorC1EPKc
libkwalletbackend5.so.5:_ZNSt11range_errorC1ERKSs
libkwalletbackend5.so.5:_ZNSt11range_errorC2EPKc
libkwalletbackend5.so.5:_ZNSt11range_errorC2ERKSs
libkwalletbackend5.so.5:_ZNSt11range_errorD0Ev
libkwalletbackend5.so.5:_ZNSt11range_errorD1Ev
libkwalletbackend5.so.5:_ZNSt11range_errorD2Ev
libkwalletbackend5.so.5:_ZNSt12__cow_stringC1EOS_
libkwalletbackend5.so.5:_ZNSt12__cow_stringC1EPKcm
libkwalletbackend5.so.5:_ZNSt12__cow_stringC1ERKS_
libkwalletbackend5.so.5:_ZNSt12__cow_stringC1ERKSs
libkwalletbackend5.so.5:_ZNSt12__cow_stringC1Ev
libkwalletbackend5.so.5:_ZNSt12__cow_stringC2EOS_
libkwalletbackend5.so.5:_ZNSt12__cow_stringC2EPKcm
libkwalletbackend5.so.5:_ZNSt12__cow_stringC2ERKS_
libkwalletbackend5.so.5:_ZNSt12__cow_stringC2ERKSs
libkwalletbackend5.so.5:_ZNSt12__cow_stringC2Ev
libkwalletbackend5.so.5:_ZNSt12__cow_stringD1Ev
libkwalletbackend5.so.5:_ZNSt12__cow_stringD2Ev
libkwalletbackend5.so.5:_ZNSt12__cow_stringaSEOS_
libkwalletbackend5.so.5:_ZNSt12__cow_stringaSERKS_
libkwalletbackend5.so.5:_ZNSt12__sso_stringC1EOS_
libkwalletbackend5.so.5:_ZNSt12__sso_stringC1EPKcm
libkwalletbackend5.so.5:_ZNSt12__sso_stringC1ERKNSt7__cxx1112basic_stringIcSt11char_traitsIcESaIcEEE
libkwalletbackend5.so.5:_ZNSt12__sso_stringC1ERKS_
libkwalletbackend5.so.5:_ZNSt12__sso_stringC1ERKSs
libkwalletbackend5.so.5:_ZNSt12__sso_stringC1Ev
libkwalletbackend5.so.5:_ZNSt12__sso_stringC2EOS_
libkwalletbackend5.so.5:_ZNSt12__sso_stringC2EPKcm
libkwalletbackend5.so.5:_ZNSt12__sso_stringC2ERKNSt7__cxx1112basic_stringIcSt11char_traitsIcESaIcEEE
libkwalletbackend5.so.5:_ZNSt12__sso_stringC2ERKS_
libkwalletbackend5.so.5:_ZNSt12__sso_stringC2ERKSs
libkwalletbackend5.so.5:_ZNSt12__sso_stringC2Ev
libkwalletbackend5.so.5:_ZNSt12__sso_stringD1Ev
libkwalletbackend5.so.5:_ZNSt12__sso_stringD2Ev
libkwalletbackend5.so.5:_ZNSt12__sso_stringaSEOS_
libkwalletbackend5.so.5:_ZNSt12__sso_stringaSERKS_
libkwalletbackend5.so.5:_ZNSt12domain_errorC1EPKc
libkwalletbackend5.so.5:_ZNSt12domain_errorC1ERKSs
libkwalletbackend5.so.5:_ZNSt12domain_errorC2EPKc
libkwalletbackend5.so.5:_ZNSt12domain_errorC2ERKSs
libkwalletbackend5.so.5:_ZNSt12domain_errorD0Ev
libkwalletbackend5.so.5:_ZNSt12domain_errorD1Ev
libkwalletbackend5.so.5:_ZNSt12domain_errorD2Ev
libkwalletbackend5.so.5:_ZNSt12length_errorC1EPKc
libkwalletbackend5.so.5:_ZNSt12length_errorC1ERKSs
libkwalletbackend5.so.5:_ZNSt12length_errorC2EPKc
libkwalletbackend5.so.5:_ZNSt12length_errorC2ERKSs
libkwalletbackend5.so.5:_ZNSt12length_errorD0Ev
libkwalletbackend5.so.5:_ZNSt12length_errorD1Ev
libkwalletbackend5.so.5:_ZNSt12length_errorD2Ev
libkwalletbackend5.so.5:_ZNSt12out_of_rangeC1EPKc
libkwalletbackend5.so.5:_ZNSt12out_of_rangeC1ERKSs
libkwalletbackend5.so.5:_ZNSt12out_of_rangeC2EPKc
libkwalletbackend5.so.5:_ZNSt12out_of_rangeC2ERKSs
libkwalletbackend5.so.5:_ZNSt12out_of_rangeD0Ev
libkwalletbackend5.so.5:_ZNSt12out_of_rangeD1Ev
libkwalletbackend5.so.5:_ZNSt12out_of_rangeD2Ev
libkwalletbackend5.so.5:_ZNSt13bad_exceptionD0Ev
libkwalletbackend5.so.5:_ZNSt13bad_exceptionD1Ev
libkwalletbackend5.so.5:_ZNSt13bad_exceptionD2Ev
libkwalletbackend5.so.5:_ZNSt13random_device14_M_init_pretr1ERKNSt7__cxx1112basic_stringIcSt11char_traitsIcESaIcEEE
libkwalletbackend5.so.5:_ZNSt13random_device14_M_init_pretr1ERKSs
libkwalletbackend5.so.5:_ZNSt13random_device16_M_getval_pretr1Ev
libkwalletbackend5.so.5:_ZNSt13random_device7_M_finiEv
libkwalletbackend5.so.5:_ZNSt13random_device7_M_initEPKcm
libkwalletbackend5.so.5:_ZNSt13random_device7_M_initERKNSt7__cxx1112basic_stringIcSt11char_traitsIcESaIcEEE
libkwalletbackend5.so.5:_ZNSt13random_device7_M_initERKSs
libkwalletbackend5.so.5:_ZNSt13random_device9_M_getvalEv
libkwalletbackend5.so.5:_ZNSt13runtime_errorC1EOS_
libkwalletbackend5.so.5:_ZNSt13runtime_errorC1EPKc
libkwalletbackend5.so.5:_ZNSt13runtime_errorC1ERKS_
libkwalletbackend5.so.5:_ZNSt13runtime_errorC1ERKSs
libkwalletbackend5.so.5:_ZNSt13runtime_errorC2EOS_
libkwalletbackend5.so.5:_ZNSt13runtime_errorC2EPKc
libkwalletbackend5.so.5:_ZNSt13runtime_errorC2ERKS_
libkwalletbackend5.so.5:_ZNSt13runtime_errorC2ERKSs
libkwalletbackend5.so.5:_ZNSt13runtime_errorD0Ev
libkwalletbackend5.so.5:_ZNSt13runtime_errorD1Ev
libkwalletbackend5.so.5:_ZNSt13runtime_errorD2Ev
libkwalletbackend5.so.5:_ZNSt13runtime_erroraSEOS_
libkwalletbackend5.so.5:_ZNSt13runtime_erroraSERKS_
libkwalletbackend5.so.5:_ZNSt14overflow_errorC1EPKc
libkwalletbackend5.so.5:_ZNSt14overflow_errorC1ERKSs
libkwalletbackend5.so.5:_ZNSt14overflow_errorC2EPKc
libkwalletbackend5.so.5:_ZNSt14overflow_errorC2ERKSs
libkwalletbackend5.so.5:_ZNSt14overflow_errorD0Ev
libkwalletbackend5.so.5:_ZNSt14overflow_errorD1Ev
libkwalletbackend5.so.5:_ZNSt14overflow_errorD2Ev
libkwalletbackend5.so.5:_ZNSt15underflow_errorC1EPKc
libkwalletbackend5.so.5:_ZNSt15underflow_errorC1ERKSs
libkwalletbackend5.so.5:_ZNSt15underflow_errorC2EPKc
libkwalletbackend5.so.5:_ZNSt15underflow_errorC2ERKSs
libkwalletbackend5.so.5:_ZNSt15underflow_errorD0Ev
libkwalletbackend5.so.5:_ZNSt15underflow_errorD1Ev
libkwalletbackend5.so.5:_ZNSt15underflow_errorD2Ev
libkwalletbackend5.so.5:_ZNSt16invalid_argumentC1EPKc
libkwalletbackend5.so.5:_ZNSt16invalid_argumentC1ERKSs
libkwalletbackend5.so.5:_ZNSt16invalid_argumentC2EPKc
libkwalletbackend5.so.5:_ZNSt16invalid_argumentC2ERKSs
libkwalletbackend5.so.5:_ZNSt16invalid_argumentD0Ev
libkwalletbackend5.so.5:_ZNSt16invalid_argumentD1Ev
libkwalletbackend5.so.5:_ZNSt16invalid_argumentD2Ev
libkwalletbackend5.so.5:_ZNSt20bad_array_new_lengthD0Ev
libkwalletbackend5.so.5:_ZNSt20bad_array_new_lengthD1Ev
libkwalletbackend5.so.5:_ZNSt20bad_array_new_lengthD2Ev
libkwalletbackend5.so.5:_ZNSt8bad_castD0Ev
libkwalletbackend5.so.5:_ZNSt8bad_castD1Ev
libkwalletbackend5.so.5:_ZNSt8bad_castD2Ev
libkwalletbackend5.so.5:_ZNSt9bad_allocD0Ev
libkwalletbackend5.so.5:_ZNSt9bad_allocD1Ev
libkwalletbackend5.so.5:_ZNSt9bad_allocD2Ev
libkwalletbackend5.so.5:_ZNSt9exceptionD0Ev
libkwalletbackend5.so.5:_ZNSt9exceptionD1Ev
libkwalletbackend5.so.5:_ZNSt9exceptionD2Ev
libkwalletbackend5.so.5:_ZNSt9type_infoD0Ev
libkwalletbackend5.so.5:_ZNSt9type_infoD1Ev
libkwalletbackend5.so.5:_ZNSt9type_infoD2Ev
libkwalletbackend5.so.5:_ZSt10unexpectedv
libkwalletbackend5.so.5:_ZSt13get_terminatev
libkwalletbackend5.so.5:_ZSt13set_terminatePFvvE
libkwalletbackend5.so.5:_ZSt14get_unexpectedv
libkwalletbackend5.so.5:_ZSt14set_unexpectedPFvvE
libkwalletbackend5.so.5:_ZSt15get_new_handlerv
libkwalletbackend5.so.5:_ZSt15set_new_handlerPFvvE
libkwalletbackend5.so.5:_ZSt16__throw_bad_castv
libkwalletbackend5.so.5:_ZSt17__throw_bad_allocv
libkwalletbackend5.so.5:_ZSt18__throw_bad_typeidv
libkwalletbackend5.so.5:_ZSt18uncaught_exceptionv
libkwalletbackend5.so.5:_ZSt19__throw_logic_errorPKc
libkwalletbackend5.so.5:_ZSt19__throw_range_errorPKc
libkwalletbackend5.so.5:_ZSt19uncaught_exceptionsv
libkwalletbackend5.so.5:_ZSt20__throw_domain_errorPKc
libkwalletbackend5.so.5:_ZSt20__throw_length_errorPKc
libkwalletbackend5.so.5:_ZSt20__throw_out_of_rangePKc
libkwalletbackend5.so.5:_ZSt21__throw_bad_exceptionv
libkwalletbackend5.so.5:_ZSt21__throw_runtime_errorPKc
libkwalletbackend5.so.5:_ZSt22__throw_overflow_errorPKc
libkwalletbackend5.so.5:_ZSt23__throw_underflow_errorPKc
libkwalletbackend5.so.5:_ZSt24__throw_invalid_argumentPKc
libkwalletbackend5.so.5:_ZSt24__throw_out_of_range_fmtPKcz
libkwalletbackend5.so.5:_ZSt28__throw_bad_array_new_lengthv
libkwalletbackend5.so.5:_ZSt9terminatev
libkwalletbackend5.so.5:_ZdaPv
libkwalletbackend5.so.5:_ZdlPv
libkwalletbackend5.so.5:_ZdlPvm
libkwalletbackend5.so.5:_Znam
libkwalletbackend5.so.5:_Znwm
libkwalletbackend5.so.5:__cxa_allocate_dependent_exception
libkwalletbackend5.so.5:__cxa_allocate_exception
libkwalletbackend5.so.5:__cxa_begin_catch
libkwalletbackend5.so.5:__cxa_call_terminate
libkwalletbackend5.so.5:__cxa_call_unexpected
libkwalletbackend5.so.5:__cxa_current_exception_type
libkwalletbackend5.so.5:__cxa_demangle
libkwalletbackend5.so.5:__cxa_end_catch
libkwalletbackend5.so.5:__cxa_free_dependent_exception
libkwalletbackend5.so.5:__cxa_free_exception
libkwalletbackend5.so.5:__cxa_get_exception_ptr
libkwalletbackend5.so.5:__cxa_get_globals
libkwalletbackend5.so.5:__cxa_get_globals_fast
libkwalletbackend5.so.5:__cxa_guard_abort
libkwalletbackend5.so.5:__cxa_guard_acquire
libkwalletbackend5.so.5:__cxa_guard_release
libkwalletbackend5.so.5:__cxa_init_primary_exception
libkwalletbackend5.so.5:__cxa_rethrow
libkwalletbackend5.so.5:__cxa_throw
libkwalletbackend5.so.5:__gcclibcxx_demangle_callback
libkwalletbackend5.so.5:__gxx_personality_v0
